target datalayout = "e-m:e-p270:32:32-p271:32:32-p272:64:64-i64:64-i128:128-f80:128-n8:16:32:64-S128"
target triple = "x86_64-pc-linux-gnu"

%class.QString = type { %struct.QArrayDataPointer }
%struct.QArrayDataPointer = type { ptr, ptr, i64 }
%class.LteRlcGraphDialog = type <{ %class.WiresharkDialog.base, [3 x i8], ptr, i8, [7 x i8], ptr, %class.QPoint, ptr, %struct.rlc_graph, %class.QMultiMap, %class.QMap, ptr, ptr, ptr, ptr, ptr, i32, [4 x i8] }>
%class.WiresharkDialog.base = type <{ %class.GeometryStateDialog, ptr, i8, [7 x i8], %class.QString, %class.QList, i32, i8 }>
%class.GeometryStateDialog = type { %class.QDialog, %class.QString }
%class.QDialog = type { %class.QWidget }
%class.QWidget = type { %class.QObject, %class.QPaintDevice.base, ptr }
%class.QObject = type { ptr, %class.QScopedPointer }
%class.QScopedPointer = type { ptr }
%class.QPaintDevice.base = type <{ ptr, i16 }>
%class.QList = type { %struct.QArrayDataPointer.0 }
%struct.QArrayDataPointer.0 = type { ptr, ptr, i64 }
%class.QPoint = type { i32, i32 }
%struct.rlc_graph = type { ptr, ptr, i32, i8, i16, i16, i16, i8, i8 }
%class.QMultiMap = type { %"class.QtPrivate::QExplicitlySharedDataPointerV2" }
%"class.QtPrivate::QExplicitlySharedDataPointerV2" = type { ptr }
%class.QMap = type { %"class.QtPrivate::QExplicitlySharedDataPointerV2.1" }
%"class.QtPrivate::QExplicitlySharedDataPointerV2.1" = type { ptr }
%class.QPointer = type { %class.QWeakPointer }
%class.QWeakPointer = type { ptr, ptr }
%class.WiresharkDialog = type <{ %class.GeometryStateDialog, ptr, i8, [7 x i8], %class.QString, %class.QList, i32, i8, [3 x i8] }>
%class.CaptureFile = type { %class.QObject, ptr, %class.QString }
%class.QCPLayerable = type <{ %class.QObject, i8, [7 x i8], ptr, %class.QPointer, ptr, i8, [7 x i8] }>

; Function Attrs: mustprogress uwtable
define linkonce_odr noundef ptr @_ZNK11CaptureFile7capFileEv(ptr noundef nonnull align 8 dereferenceable(48) %0) #0 comdat align 2 {
  %2 = alloca ptr, align 8
  store ptr %0, ptr %2, align 8
  %3 = load ptr, ptr %2, align 8
  %4 = call noundef zeroext i1 @_ZNK11CaptureFile7isValidEv(ptr noundef nonnull align 8 dereferenceable(48) %3)
  br i1 %4, label %5, label %8

5:                                                ; preds = %1
  %6 = getelementptr inbounds %class.CaptureFile, ptr %3, i32 0, i32 1
  %7 = load ptr, ptr %6, align 8
  br label %9

8:                                                ; preds = %1
  br label %9

9:                                                ; preds = %8, %5
  %10 = phi ptr [ %7, %5 ], [ null, %8 ]
  ret ptr %10
}

; Function Attrs: mustprogress nounwind uwtable
define linkonce_odr noundef zeroext i1 @_ZNK12QCPLayerable7visibleEv(ptr noundef nonnull align 8 dereferenceable(57) %0) #3 comdat align 2 {
  %2 = alloca ptr, align 8
  store ptr %0, ptr %2, align 8
  %3 = load ptr, ptr %2, align 8
  %4 = getelementptr inbounds %class.QCPLayerable, ptr %3, i32 0, i32 1
  %5 = load i8, ptr %4, align 8
  %6 = trunc i8 %5 to i1
  ret i1 %6
}

; Function Attrs: mustprogress uwtable
define void @_ZN17LteRlcGraphDialog29on_actionGoToPacket_triggeredEv(ptr noundef nonnull align 8 dereferenceable(268) %0) #0 align 2 {
  %2 = alloca ptr, align 8
  store ptr %0, ptr %2, align 8
  %3 = load ptr, ptr %2, align 8
  %4 = getelementptr inbounds %class.LteRlcGraphDialog, ptr %3, i32 0, i32 15
  %5 = load ptr, ptr %4, align 8
  %6 = call noundef zeroext i1 @_ZNK12QCPLayerable7visibleEv(ptr noundef nonnull align 8 dereferenceable(57) %5)
  br i1 %6, label %7, label %19

7:                                                ; preds = %1
  %8 = getelementptr inbounds %class.WiresharkDialog, ptr %3, i32 0, i32 1
  %9 = load ptr, ptr %8, align 8
  %10 = call noundef ptr @_ZNK11CaptureFile7capFileEv(ptr noundef nonnull align 8 dereferenceable(48) %9)
  %11 = icmp ne ptr %10, null
  br i1 %11, label %12, label %19

12:                                               ; preds = %7
  %13 = getelementptr inbounds %class.LteRlcGraphDialog, ptr %3, i32 0, i32 16
  %14 = load i32, ptr %13, align 8
  %15 = icmp ugt i32 %14, 0
  br i1 %15, label %16, label %19

16:                                               ; preds = %12
  %17 = getelementptr inbounds %class.LteRlcGraphDialog, ptr %3, i32 0, i32 16
  %18 = load i32, ptr %17, align 8
  call void @_ZN17LteRlcGraphDialog10goToPacketEi(ptr noundef nonnull align 8 dereferenceable(268) %3, i32 noundef %18)
  br label %19

19:                                               ; preds = %16, %12, %7, %1
  ret void
}