; Function Attrs: mustprogress uwtable
define void @_ZN17LteRlcGraphDialog29on_actionGoToPacket_triggeredEv(ptr noundef nonnull align 8 dereferenceable(268) %0) local_unnamed_addr #0 align 2 {
  %2 = getelementptr inbounds i8, ptr %0, i64 256
  %3 = load ptr, ptr %2, align 8
  %4 = getelementptr inbounds i8, ptr %3, i64 16
  %5 = load i8, ptr %4, align 8
  %6 = and i8 %5, 1
  %.not2 = icmp eq i8 %6, 0
  br i1 %.not2, label %17, label %7

7:                                                ; preds = %1
  %8 = getelementptr inbounds i8, ptr %0, i64 64
  %9 = load ptr, ptr %8, align 8
  %10 = tail call noundef zeroext i1 @_ZNK11CaptureFile7isValidEv(ptr noundef nonnull align 8 dereferenceable(48) %9)
  %11 = getelementptr inbounds i8, ptr %9, i64 16
  %12 = load ptr, ptr %11, align 8
  %.not3 = icmp ne ptr %12, null
  %.not.not = select i1 %10, i1 %.not3, i1 false
  br i1 %.not.not, label %13, label %17

13:                                               ; preds = %7
  %14 = getelementptr inbounds i8, ptr %0, i64 264
  %15 = load i32, ptr %14, align 8
  %.not1 = icmp eq i32 %15, 0
  br i1 %.not1, label %17, label %16

16:                                               ; preds = %13
  tail call void @_ZN17LteRlcGraphDialog10goToPacketEi(ptr noundef nonnull align 8 dereferenceable(268) %0, i32 noundef %15)
  br label %17

17:                                               ; preds = %16, %13, %7, %1
  ret void
}